(dp1
S'tunnel_helper_plugin'
p2
ccopy_reg
_reconstructor
p3
(ctwisted.plugin
CachedDropin
p4
c__builtin__
object
p5
NtRp6
(dp7
S'moduleName'
p8
S'twisted.plugins.tunnel_helper_plugin'
p9
sS'description'
p10
S'\nThis twistd plugin enables to start a tunnel helper headless using the twistd command.\n'
p11
sS'plugins'
p12
(lp13
g3
(ctwisted.plugin
CachedPlugin
p14
g5
NtRp15
(dp16
S'provided'
p17
(lp18
ctwisted.application.service
IServiceMaker
p19
actwisted.plugin
IPlugin
p20
asS'dropin'
p21
g6
sS'name'
p22
S'service_maker'
p23
sg10
NsbasbsS'tribler_plugin'
p24
g3
(g4
g5
NtRp25
(dp26
g8
S'twisted.plugins.tribler_plugin'
p27
sg10
S'\nThis twistd plugin enables to start Tribler headless using the twistd command.\n'
p28
sg12
(lp29
g3
(g14
g5
NtRp30
(dp31
g17
(lp32
g19
ag20
asg21
g25
sg22
S'service_maker'
p33
sg10
NsbasbsS'multichain_crawler_plugin'
p34
g3
(g4
g5
NtRp35
(dp36
g8
S'twisted.plugins.multichain_crawler_plugin'
p37
sg10
Nsg12
(lp38
g3
(g14
g5
NtRp39
(dp40
g17
(lp41
g19
ag20
asg21
g35
sg22
S'serviceMaker'
p42
sg10
NsbasbsS'bartercast_crawler_plugin'
p43
g3
(g4
g5
NtRp44
(dp45
g8
S'twisted.plugins.bartercast_crawler_plugin'
p46
sg10
S'\nRun Dispersy in standalone bartercast crawler mode.\n\nCrawls BarterCommunity and collects interaction data from peers.\n\nTemporary approach: all peers will run this service if this works OK. See Github issue #3.\n'
p47
sg12
(lp48
g3
(g14
g5
NtRp49
(dp50
g17
(lp51
g19
ag20
asg21
g44
sg22
g42
sg10
Nsbasbs.